; Function Attrs: mustprogress nofree norecurse nosync nounwind willreturn memory(readwrite, inaccessiblemem: none) uwtable
define void @yy_flush_buffer(ptr noundef %0, ptr nocapture noundef %1) local_unnamed_addr #13 {
  %.not = icmp eq ptr %0, null
  br i1 %.not, label %41, label %3

3:                                                ; preds = %2
  %4 = getelementptr inbounds i8, ptr %0, i64 28
  store i32 0, ptr %4, align 4
  %5 = getelementptr inbounds i8, ptr %0, i64 8
  %6 = load ptr, ptr %5, align 8
  store i8 0, ptr %6, align 1
  %7 = load ptr, ptr %5, align 8
  %8 = getelementptr inbounds i8, ptr %7, i64 1
  store i8 0, ptr %8, align 1
  %9 = load ptr, ptr %5, align 8
  %10 = getelementptr inbounds i8, ptr %0, i64 16
  store ptr %9, ptr %10, align 8
  %11 = getelementptr inbounds i8, ptr %0, i64 40
  store i32 1, ptr %11, align 8
  %12 = getelementptr inbounds i8, ptr %0, i64 56
  store i32 0, ptr %12, align 8
  %13 = getelementptr inbounds i8, ptr %1, i64 40
  %14 = load ptr, ptr %13, align 8
  %.not15 = icmp eq ptr %14, null
  br i1 %.not15, label %20, label %15

15:                                               ; preds = %3
  %16 = getelementptr inbounds i8, ptr %1, i64 24
  %17 = load i64, ptr %16, align 8
  %18 = getelementptr inbounds ptr, ptr %14, i64 %17
  %19 = load ptr, ptr %18, align 8
  br label %20

20:                                               ; preds = %3, %15
  %21 = phi ptr [ %19, %15 ], [ null, %3 ]
  %22 = icmp eq ptr %21, %0
  br i1 %22, label %23, label %41

23:                                               ; preds = %20
  %24 = getelementptr inbounds i8, ptr %1, i64 24
  %25 = load i64, ptr %24, align 8
  %26 = getelementptr inbounds ptr, ptr %14, i64 %25
  %27 = load ptr, ptr %26, align 8
  %28 = getelementptr inbounds i8, ptr %27, i64 28
  %29 = load i32, ptr %28, align 4
  %30 = getelementptr inbounds i8, ptr %1, i64 52
  store i32 %29, ptr %30, align 4
  %31 = load ptr, ptr %26, align 8
  %32 = getelementptr inbounds i8, ptr %31, i64 16
  %33 = load ptr, ptr %32, align 8
  %34 = getelementptr inbounds i8, ptr %1, i64 64
  store ptr %33, ptr %34, align 8
  %35 = getelementptr inbounds i8, ptr %1, i64 128
  store ptr %33, ptr %35, align 8
  %36 = load ptr, ptr %26, align 8
  %37 = load ptr, ptr %36, align 8
  %38 = getelementptr inbounds i8, ptr %1, i64 8
  store ptr %37, ptr %38, align 8
  %39 = load i8, ptr %33, align 1
  %40 = getelementptr inbounds i8, ptr %1, i64 48
  store i8 %39, ptr %40, align 8
  br label %41

41:                                               ; preds = %2, %23, %20
  ret void
}